ccopy_reg
_reconstructor
p0
(cgoogle.oauth2.credentials
Credentials
p1
c__builtin__
object
p2
Ntp3
Rp4
(dp5
S'_token_uri'
p6
Vhttps://oauth2.googleapis.com/token
p7
sS'_scopes'
p8
(lp9
S'https://www.googleapis.com/auth/calendar.events'
p10
asS'_id_token'
p11
NsS'token'
p12
Vya29.GlyuBhbKTDfQnBBIo3pvUg6PIbK1CRb2LWm3I-4ia4eGfZVvRynVd9U_P4PNB_wU6RK8RD_NuV8p_x3cFTpkQk6uVtfRsvdJE3YPVDTigKRuZ2SiSIDr3JCNe0zU4A
p13
sS'_refresh_token'
p14
V1/CVX5ZjeK8p6zZulPEk5a1-WbzqkwuGU5NL7IBQCZIxI
p15
sS'_client_secret'
p16
Vv4M0EczHI5LCfbeE_Rxtxtgm
p17
sS'_client_id'
p18
V824267796964-q4qpemonu4un3linv7eiugcg3fokel2p.apps.googleusercontent.com
p19
sS'expiry'
p20
cdatetime
datetime
p21
(S'\x07\xe3\x02\x0c\n\x08\x1f\x0c!:'
p22
tp23
Rp24
sb.