ccopy_reg
_reconstructor
p0
(cgoogle.oauth2.credentials
Credentials
p1
c__builtin__
object
p2
Ntp3
Rp4
(dp5
S'_token_uri'
p6
Vhttps://oauth2.googleapis.com/token
p7
sS'_scopes'
p8
(lp9
S'https://www.googleapis.com/auth/calendar.events'
p10
asS'_id_token'
p11
NsS'token'
p12
Vya29.GlyuBlC9jho5s6XZW24-vHTCxNE_ZEpVyjfj4vw0d6u5KH_574NfwV0PnZhXXL2U049rkcoTGYg50x4G1_NFZyXLYGt2KmcouVmwg0BmRq1O9Y-P_nj-A3vkbKBvJg
p13
sS'_refresh_token'
p14
V1/CVX5ZjeK8p6zZulPEk5a1-WbzqkwuGU5NL7IBQCZIxI
p15
sS'_client_secret'
p16
Vv4M0EczHI5LCfbeE_Rxtxtgm
p17
sS'_client_id'
p18
V824267796964-q4qpemonu4un3linv7eiugcg3fokel2p.apps.googleusercontent.com
p19
sS'expiry'
p20
cdatetime
datetime
p21
(S'\x07\xe3\x02\x0c\x03)\x06\x00\xf8\xc0'
p22
tp23
Rp24
sb.